; Function Attrs: mustprogress uwtable
define void @_ZN7rocksdb14ThreadPoolImpl28IncBackgroundThreadsIfNeededEi(ptr noundef nonnull readonly align 8 captures(none) dereferenceable(16) %0, i32 noundef %1) local_unnamed_addr #3 align 2 personality ptr @__gxx_personality_v0 {
  %3 = getelementptr inbounds nuw i8, ptr %0, i64 8
  %4 = load ptr, ptr %3, align 8, !tbaa !155
  %5 = getelementptr inbounds nuw i8, ptr %4, i64 128
  %6 = tail call noundef i32 @pthread_mutex_lock(ptr noundef nonnull align 8 dereferenceable(40) %5) #26
  %.not.i.i.i = icmp eq i32 %6, 0
  br i1 %.not.i.i.i, label %_ZNSt10lock_guardISt5mutexEC2ERS0_.exit.i, label %7

7:                                                ; preds = %2
  tail call void @_ZSt20__throw_system_errori(i32 noundef %6) #29
  unreachable

_ZNSt10lock_guardISt5mutexEC2ERS0_.exit.i:        ; preds = %2
  %8 = getelementptr inbounds nuw i8, ptr %4, i64 40
  %9 = load i8, ptr %8, align 8, !tbaa !42, !range !56, !noundef !57
  %10 = trunc nuw i8 %9 to i1
  br i1 %10, label %_ZN7rocksdb14ThreadPoolImpl4Impl28SetBackgroundThreadsInternalEib.exit, label %11

11:                                               ; preds = %_ZNSt10lock_guardISt5mutexEC2ERS0_.exit.i
  %12 = getelementptr inbounds nuw i8, ptr %4, i64 24
  %13 = load i32, ptr %12, align 8, !tbaa !43
  %14 = icmp sgt i32 %1, %13
  br i1 %14, label %15, label %_ZN7rocksdb14ThreadPoolImpl4Impl28SetBackgroundThreadsInternalEib.exit

15:                                               ; preds = %11
  %.sroa.speculated.i = tail call i32 @llvm.smax.i32(i32 %1, i32 0)
  store i32 %.sroa.speculated.i, ptr %12, align 8, !tbaa !43
  %16 = getelementptr inbounds nuw i8, ptr %4, i64 168
  tail call void @_ZNSt18condition_variable10notify_allEv(ptr noundef nonnull align 8 dereferenceable(48) %16) #26
  invoke void @_ZN7rocksdb14ThreadPoolImpl4Impl14StartBGThreadsEv(ptr noundef nonnull align 8 dereferenceable(240) %4)
          to label %_ZN7rocksdb14ThreadPoolImpl4Impl28SetBackgroundThreadsInternalEib.exit unwind label %17

17:                                               ; preds = %15
  %18 = landingpad { ptr, i32 }
          cleanup
  %19 = tail call noundef i32 @pthread_mutex_unlock(ptr noundef nonnull align 8 dereferenceable(40) %5) #26
  resume { ptr, i32 } %18

_ZN7rocksdb14ThreadPoolImpl4Impl28SetBackgroundThreadsInternalEib.exit: ; preds = %_ZNSt10lock_guardISt5mutexEC2ERS0_.exit.i, %11, %15
  %20 = tail call noundef i32 @pthread_mutex_unlock(ptr noundef nonnull align 8 dereferenceable(40) %5) #26
  ret void
}